target datalayout = "e-m:e-p270:32:32-p271:32:32-p272:64:64-i64:64-i128:128-f80:128-n8:16:32:64-S128"
target triple = "x86_64-unknown-linux-gnu"

%"class.icu_75::UnicodeString" = type { %"class.icu_75::Replaceable", %"union.icu_75::UnicodeString::StackBufferOrFields" }
%"class.icu_75::Replaceable" = type { %"class.icu_75::UObject" }
%"class.icu_75::UObject" = type { ptr }
%"union.icu_75::UnicodeString::StackBufferOrFields" = type { %struct.anon.0, [32 x i8] }
%struct.anon.0 = type { i16, i32, i32, ptr }
%"class.icu_75::CompoundTransliterator" = type { %"class.icu_75::Transliterator.base", ptr, i32, i32 }
%"class.icu_75::Transliterator.base" = type <{ %"class.icu_75::UObject", %"class.icu_75::UnicodeString", ptr, i32 }>

; Function Attrs: mustprogress uwtable
define void @_ZN6icu_7522CompoundTransliterator19freeTransliteratorsEv(ptr noundef nonnull align 8 dereferenceable(104) %this) #1 align 2 {
entry:
  %this.addr = alloca ptr, align 8
  %i = alloca i32, align 4
  store ptr %this, ptr %this.addr, align 8
  %this1 = load ptr, ptr %this.addr, align 8
  %trans = getelementptr inbounds %"class.icu_75::CompoundTransliterator", ptr %this1, i32 0, i32 1
  %0 = load ptr, ptr %trans, align 8
  %cmp = icmp ne ptr %0, null
  br i1 %cmp, label %if.then, label %if.end

if.then:                                          ; preds = %entry
  store i32 0, ptr %i, align 4
  br label %for.cond

for.cond:                                         ; preds = %for.inc, %if.then
  %1 = load i32, ptr %i, align 4
  %count = getelementptr inbounds %"class.icu_75::CompoundTransliterator", ptr %this1, i32 0, i32 2
  %2 = load i32, ptr %count, align 8
  %cmp2 = icmp slt i32 %1, %2
  br i1 %cmp2, label %for.body, label %for.end

for.body:                                         ; preds = %for.cond
  %trans3 = getelementptr inbounds %"class.icu_75::CompoundTransliterator", ptr %this1, i32 0, i32 1
  %3 = load ptr, ptr %trans3, align 8
  %4 = load i32, ptr %i, align 4
  %idxprom = sext i32 %4 to i64
  %arrayidx = getelementptr inbounds ptr, ptr %3, i64 %idxprom
  %5 = load ptr, ptr %arrayidx, align 8
  %isnull = icmp eq ptr %5, null
  br i1 %isnull, label %delete.end, label %delete.notnull

delete.notnull:                                   ; preds = %for.body
  %vtable = load ptr, ptr %5, align 8
  %vfn = getelementptr inbounds ptr, ptr %vtable, i64 1
  %6 = load ptr, ptr %vfn, align 8
  call void %6(ptr noundef nonnull align 8 dereferenceable(84) %5) #6
  br label %delete.end

delete.end:                                       ; preds = %delete.notnull, %for.body
  br label %for.inc

for.inc:                                          ; preds = %delete.end
  %7 = load i32, ptr %i, align 4
  %inc = add nsw i32 %7, 1
  store i32 %inc, ptr %i, align 4
  br label %for.cond, !llvm.loop !14

for.end:                                          ; preds = %for.cond
  %trans4 = getelementptr inbounds %"class.icu_75::CompoundTransliterator", ptr %this1, i32 0, i32 1
  %8 = load ptr, ptr %trans4, align 8
  call void @uprv_free_75(ptr noundef %8)
  br label %if.end

if.end:                                           ; preds = %for.end, %entry
  %trans5 = getelementptr inbounds %"class.icu_75::CompoundTransliterator", ptr %this1, i32 0, i32 1
  store ptr null, ptr %trans5, align 8
  %count6 = getelementptr inbounds %"class.icu_75::CompoundTransliterator", ptr %this1, i32 0, i32 2
  store i32 0, ptr %count6, align 8
  ret void
}