; Function Attrs: mustprogress uwtable
define void @_ZN6icu_7522CompoundTransliterator19freeTransliteratorsEv(ptr nocapture noundef nonnull align 8 dereferenceable(104) %this) local_unnamed_addr #1 align 2 {
entry:
  %trans = getelementptr inbounds i8, ptr %this, i64 88
  %0 = load ptr, ptr %trans, align 8
  %cmp.not = icmp eq ptr %0, null
  br i1 %cmp.not, label %if.end, label %for.cond.preheader

for.cond.preheader:                               ; preds = %entry
  %count = getelementptr inbounds i8, ptr %this, i64 96
  %1 = load i32, ptr %count, align 8
  %cmp23 = icmp sgt i32 %1, 0
  br i1 %cmp23, label %for.body, label %for.end

for.body:                                         ; preds = %for.cond.preheader, %for.inc
  %2 = phi i32 [ %6, %for.inc ], [ %1, %for.cond.preheader ]
  %indvars.iv = phi i64 [ %indvars.iv.next, %for.inc ], [ 0, %for.cond.preheader ]
  %3 = load ptr, ptr %trans, align 8
  %arrayidx = getelementptr inbounds ptr, ptr %3, i64 %indvars.iv
  %4 = load ptr, ptr %arrayidx, align 8
  %isnull = icmp eq ptr %4, null
  br i1 %isnull, label %for.inc, label %delete.notnull

delete.notnull:                                   ; preds = %for.body
  %vtable = load ptr, ptr %4, align 8
  %vfn = getelementptr inbounds i8, ptr %vtable, i64 8
  %5 = load ptr, ptr %vfn, align 8
  tail call void %5(ptr noundef nonnull align 8 dereferenceable(84) %4) #13
  %.pre = load i32, ptr %count, align 8
  br label %for.inc

for.inc:                                          ; preds = %for.body, %delete.notnull
  %6 = phi i32 [ %2, %for.body ], [ %.pre, %delete.notnull ]
  %indvars.iv.next = add nuw nsw i64 %indvars.iv, 1
  %7 = sext i32 %6 to i64
  %cmp2 = icmp slt i64 %indvars.iv.next, %7
  br i1 %cmp2, label %for.body, label %for.end.loopexit, !llvm.loop !17

for.end.loopexit:                                 ; preds = %for.inc
  %.pre6 = load ptr, ptr %trans, align 8
  br label %for.end

for.end:                                          ; preds = %for.end.loopexit, %for.cond.preheader
  %8 = phi ptr [ %.pre6, %for.end.loopexit ], [ %0, %for.cond.preheader ]
  tail call void @uprv_free_75(ptr noundef %8)
  br label %if.end

if.end:                                           ; preds = %for.end, %entry
  store ptr null, ptr %trans, align 8
  %count6 = getelementptr inbounds i8, ptr %this, i64 96
  store i32 0, ptr %count6, align 8
  ret void
}